target datalayout = "e-m:e-p270:32:32-p271:32:32-p272:64:64-i64:64-i128:128-f80:128-n8:16:32:64-S128"
target triple = "x86_64-pc-linux-gnu"

%struct._object = type { %union.anon, ptr }
%union.anon = type { i64 }
%struct.py_hashentry_t = type { ptr, ptr, ptr, i32, i32, ptr, ptr }
%struct.PyMutex = type { i8 }
%struct.EVPobject = type { %struct._object, ptr, i8, %struct.PyMutex }

; Function Attrs: nounwind uwtable
define internal ptr @py_digest_name(ptr noundef %0) #0 {
  %2 = alloca ptr, align 8
  %3 = alloca i32, align 4
  %4 = alloca ptr, align 8
  %5 = alloca ptr, align 8
  store ptr %0, ptr %2, align 8, !tbaa !17
  call void @llvm.lifetime.start.p0(i64 4, ptr %3) #9
  %6 = load ptr, ptr %2, align 8, !tbaa !17
  %7 = call i32 @EVP_MD_get_type(ptr noundef %6)
  store i32 %7, ptr %3, align 4, !tbaa !19
  call void @llvm.lifetime.start.p0(i64 8, ptr %4) #9
  store ptr null, ptr %4, align 8, !tbaa !21
  call void @llvm.lifetime.start.p0(i64 8, ptr %5) #9
  store ptr @py_hashes, ptr %5, align 8, !tbaa !3
  br label %8

8:                                                ; preds = %24, %1
  %9 = load ptr, ptr %5, align 8, !tbaa !3
  %10 = getelementptr inbounds nuw %struct.py_hashentry_t, ptr %9, i32 0, i32 0
  %11 = load ptr, ptr %10, align 8, !tbaa !23
  %12 = icmp ne ptr %11, null
  br i1 %12, label %13, label %27

13:                                               ; preds = %8
  %14 = load ptr, ptr %5, align 8, !tbaa !3
  %15 = getelementptr inbounds nuw %struct.py_hashentry_t, ptr %14, i32 0, i32 3
  %16 = load i32, ptr %15, align 8, !tbaa !25
  %17 = load i32, ptr %3, align 4, !tbaa !19
  %18 = icmp eq i32 %16, %17
  br i1 %18, label %19, label %23

19:                                               ; preds = %13
  %20 = load ptr, ptr %5, align 8, !tbaa !3
  %21 = getelementptr inbounds nuw %struct.py_hashentry_t, ptr %20, i32 0, i32 0
  %22 = load ptr, ptr %21, align 8, !tbaa !23
  store ptr %22, ptr %4, align 8, !tbaa !21
  br label %27

23:                                               ; preds = %13
  br label %24

24:                                               ; preds = %23
  %25 = load ptr, ptr %5, align 8, !tbaa !3
  %26 = getelementptr %struct.py_hashentry_t, ptr %25, i32 1
  store ptr %26, ptr %5, align 8, !tbaa !3
  br label %8, !llvm.loop !26

27:                                               ; preds = %19, %8
  %28 = load ptr, ptr %4, align 8, !tbaa !21
  %29 = icmp eq ptr %28, null
  br i1 %29, label %30, label %39

30:                                               ; preds = %27
  %31 = load i32, ptr %3, align 4, !tbaa !19
  %32 = call ptr @OBJ_nid2ln(i32 noundef %31)
  store ptr %32, ptr %4, align 8, !tbaa !21
  %33 = load ptr, ptr %4, align 8, !tbaa !21
  %34 = icmp eq ptr %33, null
  br i1 %34, label %35, label %38

35:                                               ; preds = %30
  %36 = load i32, ptr %3, align 4, !tbaa !19
  %37 = call ptr @OBJ_nid2sn(i32 noundef %36)
  store ptr %37, ptr %4, align 8, !tbaa !21
  br label %38

38:                                               ; preds = %35, %30
  br label %39

39:                                               ; preds = %38, %27
  %40 = load ptr, ptr %4, align 8, !tbaa !21
  %41 = call ptr @PyUnicode_FromString(ptr noundef %40)
  call void @llvm.lifetime.end.p0(i64 8, ptr %5) #9
  call void @llvm.lifetime.end.p0(i64 8, ptr %4) #9
  call void @llvm.lifetime.end.p0(i64 4, ptr %3) #9
  ret ptr %41
}

; Function Attrs: nounwind uwtable
define internal ptr @EVP_get_name(ptr noundef %0, ptr noundef %1) #0 {
  %3 = alloca ptr, align 8
  %4 = alloca ptr, align 8
  store ptr %0, ptr %3, align 8, !tbaa !3
  store ptr %1, ptr %4, align 8, !tbaa !3
  %5 = load ptr, ptr %3, align 8, !tbaa !3
  %6 = getelementptr inbounds nuw %struct.EVPobject, ptr %5, i32 0, i32 1
  %7 = load ptr, ptr %6, align 8, !tbaa !69
  %8 = call ptr @EVP_MD_CTX_md(ptr noundef %7)
  %9 = call ptr @py_digest_name(ptr noundef %8)
  ret ptr %9
}