; Function Attrs: nounwind uwtable
define internal ptr @EVP_get_name(ptr noundef readonly captures(none) %0, ptr readnone captures(none) %1) #0 {
  %3 = getelementptr inbounds nuw i8, ptr %0, i64 16
  %4 = load ptr, ptr %3, align 8, !tbaa !62
  %5 = tail call ptr @EVP_MD_CTX_md(ptr noundef %4) #9
  %6 = tail call i32 @EVP_MD_get_type(ptr noundef %5) #9
  %7 = icmp eq i32 %6, 4
  br i1 %7, label %py_digest_name.exit, label %.lr.ph

.lr.ph:                                           ; preds = %2, %10
  %.015.i2 = phi ptr [ %8, %10 ], [ @py_hashes, %2 ]
  %8 = getelementptr i8, ptr %.015.i2, i64 48
  %9 = load ptr, ptr %8, align 8, !tbaa !13
  %.not.i = icmp eq ptr %9, null
  br i1 %.not.i, label %14, label %10, !llvm.loop !18

10:                                               ; preds = %.lr.ph
  %11 = getelementptr i8, ptr %.015.i2, i64 72
  %12 = load i32, ptr %11, align 8, !tbaa !20
  %13 = icmp eq i32 %12, %6
  br i1 %13, label %py_digest_name.exit, label %.lr.ph, !llvm.loop !18

14:                                               ; preds = %.lr.ph
  %15 = tail call ptr @OBJ_nid2ln(i32 noundef %6) #9
  %16 = icmp eq ptr %15, null
  br i1 %16, label %17, label %py_digest_name.exit

17:                                               ; preds = %14
  %18 = tail call ptr @OBJ_nid2sn(i32 noundef %6) #9
  br label %py_digest_name.exit

py_digest_name.exit:                              ; preds = %10, %2, %14, %17
  %.1.i = phi ptr [ %18, %17 ], [ %15, %14 ], [ @.str.3, %2 ], [ %9, %10 ]
  %19 = tail call ptr @PyUnicode_FromString(ptr noundef %.1.i) #9
  ret ptr %19
}